; Function Attrs: mustprogress nounwind uwtable
define hidden noundef range(i32 0, 7) i32 @_Z42ArraycopyDstPrefetchDistanceConstraintFuncmb(i64 noundef %0, i1 noundef zeroext %1) local_unnamed_addr #0 {
  %3 = icmp ugt i64 %0, 4031
  br i1 %3, label %4, label %5

4:                                                ; preds = %2
  tail call void (i1, ptr, ...) @_ZN7JVMFlag10printErrorEbPKcz(i1 noundef zeroext %1, ptr noundef nonnull @.str.20, i64 noundef %0) #6
  br label %5

5:                                                ; preds = %2, %4
  %.0 = phi i32 [ 6, %4 ], [ 0, %2 ]
  ret i32 %.0
}